target datalayout = "e-m:e-p270:32:32-p271:32:32-p272:64:64-i64:64-i128:128-f80:128-n8:16:32:64-S128"
target triple = "x86_64-pc-linux-gnu"

@.str.204 = private unnamed_addr constant [4 x i8] c"OIs\00", align 1
@PyExc_OSError = external global ptr, align 8

; Function Attrs: nounwind uwtable
define internal ptr @write_perf_map_entry(ptr noundef %0, ptr noundef %1) #0 {
  %3 = alloca ptr, align 8
  %4 = alloca ptr, align 8
  %5 = alloca ptr, align 8
  %6 = alloca ptr, align 8
  %7 = alloca ptr, align 8
  %8 = alloca i32, align 4
  %9 = alloca ptr, align 8
  %10 = alloca i32, align 4
  %11 = alloca i32, align 4
  store ptr %0, ptr %4, align 8, !tbaa !3
  store ptr %1, ptr %5, align 8, !tbaa !3
  call void @llvm.lifetime.start.p0(i64 8, ptr %6) #10
  call void @llvm.lifetime.start.p0(i64 8, ptr %7) #10
  call void @llvm.lifetime.start.p0(i64 4, ptr %8) #10
  call void @llvm.lifetime.start.p0(i64 8, ptr %9) #10
  %12 = load ptr, ptr %5, align 8, !tbaa !3
  %13 = call i32 (ptr, ptr, ...) @PyArg_ParseTuple(ptr noundef %12, ptr noundef @.str.204, ptr noundef %6, ptr noundef %8, ptr noundef %9)
  %14 = icmp ne i32 %13, 0
  br i1 %14, label %16, label %15

15:                                               ; preds = %2
  store ptr null, ptr %3, align 8
  store i32 1, ptr %10, align 4
  br label %37

16:                                               ; preds = %2
  %17 = load ptr, ptr %6, align 8, !tbaa !3
  %18 = call ptr @PyLong_AsVoidPtr(ptr noundef %17)
  store ptr %18, ptr %7, align 8, !tbaa !8
  %19 = load ptr, ptr %7, align 8, !tbaa !8
  %20 = icmp eq ptr %19, null
  br i1 %20, label %21, label %22

21:                                               ; preds = %16
  store ptr null, ptr %3, align 8
  store i32 1, ptr %10, align 4
  br label %37

22:                                               ; preds = %16
  call void @llvm.lifetime.start.p0(i64 4, ptr %11) #10
  %23 = load ptr, ptr %7, align 8, !tbaa !8
  %24 = load i32, ptr %8, align 4, !tbaa !26
  %25 = load ptr, ptr %9, align 8, !tbaa !46
  %26 = call i32 @PyUnstable_WritePerfMapEntry(ptr noundef %23, i32 noundef %24, ptr noundef %25)
  store i32 %26, ptr %11, align 4, !tbaa !26
  %27 = load i32, ptr %11, align 4, !tbaa !26
  %28 = icmp slt i32 %27, 0
  br i1 %28, label %29, label %32

29:                                               ; preds = %22
  %30 = load ptr, ptr @PyExc_OSError, align 8, !tbaa !3
  %31 = call ptr @PyErr_SetFromErrno(ptr noundef %30)
  store ptr null, ptr %3, align 8
  store i32 1, ptr %10, align 4
  br label %36

32:                                               ; preds = %22
  %33 = load i32, ptr %11, align 4, !tbaa !26
  %34 = sext i32 %33 to i64
  %35 = call ptr @PyLong_FromLong(i64 noundef %34)
  store ptr %35, ptr %3, align 8
  store i32 1, ptr %10, align 4
  br label %36

36:                                               ; preds = %32, %29
  call void @llvm.lifetime.end.p0(i64 4, ptr %11) #10
  br label %37

37:                                               ; preds = %36, %21, %15
  call void @llvm.lifetime.end.p0(i64 8, ptr %9) #10
  call void @llvm.lifetime.end.p0(i64 4, ptr %8) #10
  call void @llvm.lifetime.end.p0(i64 8, ptr %7) #10
  call void @llvm.lifetime.end.p0(i64 8, ptr %6) #10
  %38 = load ptr, ptr %3, align 8
  ret ptr %38
}