; Function Attrs: nounwind uwtable
define internal ptr @write_perf_map_entry(ptr readnone captures(none) %0, ptr noundef %1) #0 {
  %3 = alloca ptr, align 8
  %4 = alloca i32, align 4
  %5 = alloca ptr, align 8
  call void @llvm.lifetime.start.p0(i64 8, ptr nonnull %3) #11
  call void @llvm.lifetime.start.p0(i64 4, ptr nonnull %4) #11
  call void @llvm.lifetime.start.p0(i64 8, ptr nonnull %5) #11
  %6 = call i32 (ptr, ptr, ...) @PyArg_ParseTuple(ptr noundef %1, ptr noundef nonnull @.str.204, ptr noundef nonnull %3, ptr noundef nonnull %4, ptr noundef nonnull %5) #11
  %.not = icmp eq i32 %6, 0
  br i1 %.not, label %22, label %7

7:                                                ; preds = %2
  %8 = load ptr, ptr %3, align 8, !tbaa !9
  %9 = call ptr @PyLong_AsVoidPtr(ptr noundef %8) #11
  %10 = icmp eq ptr %9, null
  br i1 %10, label %22, label %11

11:                                               ; preds = %7
  %12 = load i32, ptr %4, align 4, !tbaa !25
  %13 = load ptr, ptr %5, align 8, !tbaa !41
  %14 = call i32 @PyUnstable_WritePerfMapEntry(ptr noundef nonnull %9, i32 noundef %12, ptr noundef %13) #11
  %15 = icmp slt i32 %14, 0
  br i1 %15, label %16, label %19

16:                                               ; preds = %11
  %17 = load ptr, ptr @PyExc_OSError, align 8, !tbaa !9
  %18 = call ptr @PyErr_SetFromErrno(ptr noundef %17) #11
  br label %22

19:                                               ; preds = %11
  %20 = zext nneg i32 %14 to i64
  %21 = call ptr @PyLong_FromLong(i64 noundef %20) #11
  br label %22

22:                                               ; preds = %16, %19, %7, %2
  %.0 = phi ptr [ null, %2 ], [ null, %7 ], [ null, %16 ], [ %21, %19 ]
  call void @llvm.lifetime.end.p0(i64 8, ptr nonnull %5) #11
  call void @llvm.lifetime.end.p0(i64 4, ptr nonnull %4) #11
  call void @llvm.lifetime.end.p0(i64 8, ptr nonnull %3) #11
  ret ptr %.0
}